target datalayout = "e-m:e-p270:32:32-p271:32:32-p272:64:64-i64:64-i128:128-f80:128-n8:16:32:64-S128"
target triple = "x86_64-pc-linux-gnu"

%struct.PyVarObject = type { %struct._object, i64 }
%struct._object = type { %union.anon, ptr }
%union.anon = type { i64 }
%struct.PyTupleObject = type { %struct.PyVarObject, [1 x ptr] }

@.str.7 = private unnamed_addr constant [3 x i8] c"()\00", align 1
@.str.8 = private unnamed_addr constant [6 x i8] c"(...)\00", align 1

; Function Attrs: inlinehint nounwind uwtable
define internal i64 @Py_SIZE(ptr noundef %0) #2 {
  %2 = alloca ptr, align 8
  store ptr %0, ptr %2, align 8, !tbaa !10
  %3 = load ptr, ptr %2, align 8, !tbaa !10
  %4 = getelementptr inbounds nuw %struct.PyVarObject, ptr %3, i32 0, i32 1
  %5 = load i64, ptr %4, align 8, !tbaa !108
  ret i64 %5
}

; Function Attrs: inlinehint nounwind uwtable
define internal i64 @PyTuple_GET_SIZE(ptr noundef %0) #2 {
  %2 = alloca ptr, align 8
  %3 = alloca ptr, align 8
  store ptr %0, ptr %2, align 8, !tbaa !10
  call void @llvm.lifetime.start.p0(i64 8, ptr %3) #9
  %4 = load ptr, ptr %2, align 8, !tbaa !10
  store ptr %4, ptr %3, align 8, !tbaa !8
  %5 = load ptr, ptr %3, align 8, !tbaa !8
  %6 = call i64 @Py_SIZE(ptr noundef %5)
  call void @llvm.lifetime.end.p0(i64 8, ptr %3) #9
  ret i64 %6
}

; Function Attrs: nounwind uwtable
define internal ptr @tuple_repr(ptr noundef %0) #0 {
  %2 = alloca ptr, align 8
  %3 = alloca ptr, align 8
  %4 = alloca ptr, align 8
  %5 = alloca i64, align 8
  %6 = alloca i32, align 4
  %7 = alloca i32, align 4
  %8 = alloca i64, align 8
  %9 = alloca ptr, align 8
  %10 = alloca i64, align 8
  store ptr %0, ptr %3, align 8, !tbaa !10
  call void @llvm.lifetime.start.p0(i64 8, ptr %4) #9
  %11 = load ptr, ptr %3, align 8, !tbaa !10
  store ptr %11, ptr %4, align 8, !tbaa !8
  call void @llvm.lifetime.start.p0(i64 8, ptr %5) #9
  %12 = load ptr, ptr %4, align 8, !tbaa !8
  %13 = call i64 @PyTuple_GET_SIZE(ptr noundef %12)
  store i64 %13, ptr %5, align 8, !tbaa !4
  %14 = load i64, ptr %5, align 8, !tbaa !4
  %15 = icmp eq i64 %14, 0
  br i1 %15, label %16, label %18

16:                                               ; preds = %1
  %17 = call ptr @PyUnicode_FromString(ptr noundef @.str.7)
  store ptr %17, ptr %2, align 8
  store i32 1, ptr %6, align 4
  br label %111

18:                                               ; preds = %1
  call void @llvm.lifetime.start.p0(i64 4, ptr %7) #9
  %19 = load ptr, ptr %4, align 8, !tbaa !8
  %20 = call i32 @Py_ReprEnter(ptr noundef %19)
  store i32 %20, ptr %7, align 4, !tbaa !125
  %21 = load i32, ptr %7, align 4, !tbaa !125
  %22 = icmp ne i32 %21, 0
  br i1 %22, label %23, label %31

23:                                               ; preds = %18
  %24 = load i32, ptr %7, align 4, !tbaa !125
  %25 = icmp sgt i32 %24, 0
  br i1 %25, label %26, label %28

26:                                               ; preds = %23
  %27 = call ptr @PyUnicode_FromString(ptr noundef @.str.8)
  br label %29

28:                                               ; preds = %23
  br label %29

29:                                               ; preds = %28, %26
  %30 = phi ptr [ %27, %26 ], [ null, %28 ]
  store ptr %30, ptr %2, align 8
  store i32 1, ptr %6, align 4
  br label %110

31:                                               ; preds = %18
  call void @llvm.lifetime.start.p0(i64 8, ptr %8) #9
  %32 = load i64, ptr %5, align 8, !tbaa !4
  %33 = icmp sgt i64 %32, 1
  br i1 %33, label %34, label %40

34:                                               ; preds = %31
  %35 = load i64, ptr %5, align 8, !tbaa !4
  %36 = sub i64 %35, 1
  %37 = mul i64 3, %36
  %38 = add i64 2, %37
  %39 = add i64 %38, 1
  store i64 %39, ptr %8, align 8, !tbaa !4
  br label %41

40:                                               ; preds = %31
  store i64 4, ptr %8, align 8, !tbaa !4
  br label %41

41:                                               ; preds = %40, %34
  call void @llvm.lifetime.start.p0(i64 8, ptr %9) #9
  %42 = load i64, ptr %8, align 8, !tbaa !4
  %43 = call ptr @PyUnicodeWriter_Create(i64 noundef %42)
  store ptr %43, ptr %9, align 8, !tbaa !126
  %44 = load ptr, ptr %9, align 8, !tbaa !126
  %45 = icmp eq ptr %44, null
  br i1 %45, label %46, label %47

46:                                               ; preds = %41
  br label %106

47:                                               ; preds = %41
  %48 = load ptr, ptr %9, align 8, !tbaa !126
  %49 = call i32 @PyUnicodeWriter_WriteChar(ptr noundef %48, i32 noundef 40)
  %50 = icmp slt i32 %49, 0
  br i1 %50, label %51, label %52

51:                                               ; preds = %47
  br label %106

52:                                               ; preds = %47
  call void @llvm.lifetime.start.p0(i64 8, ptr %10) #9
  store i64 0, ptr %10, align 8, !tbaa !4
  br label %53

53:                                               ; preds = %83, %52
  %54 = load i64, ptr %10, align 8, !tbaa !4
  %55 = load i64, ptr %5, align 8, !tbaa !4
  %56 = icmp slt i64 %54, %55
  br i1 %56, label %58, label %57

57:                                               ; preds = %53
  store i32 3, ptr %6, align 4
  br label %86

58:                                               ; preds = %53
  %59 = load i64, ptr %10, align 8, !tbaa !4
  %60 = icmp sgt i64 %59, 0
  br i1 %60, label %61, label %72

61:                                               ; preds = %58
  %62 = load ptr, ptr %9, align 8, !tbaa !126
  %63 = call i32 @PyUnicodeWriter_WriteChar(ptr noundef %62, i32 noundef 44)
  %64 = icmp slt i32 %63, 0
  br i1 %64, label %65, label %66

65:                                               ; preds = %61
  store i32 2, ptr %6, align 4
  br label %86

66:                                               ; preds = %61
  %67 = load ptr, ptr %9, align 8, !tbaa !126
  %68 = call i32 @PyUnicodeWriter_WriteChar(ptr noundef %67, i32 noundef 32)
  %69 = icmp slt i32 %68, 0
  br i1 %69, label %70, label %71

70:                                               ; preds = %66
  store i32 2, ptr %6, align 4
  br label %86

71:                                               ; preds = %66
  br label %72

72:                                               ; preds = %71, %58
  %73 = load ptr, ptr %9, align 8, !tbaa !126
  %74 = load ptr, ptr %4, align 8, !tbaa !8
  %75 = getelementptr inbounds nuw %struct.PyTupleObject, ptr %74, i32 0, i32 1
  %76 = load i64, ptr %10, align 8, !tbaa !4
  %77 = getelementptr [1 x ptr], ptr %75, i64 0, i64 %76
  %78 = load ptr, ptr %77, align 8, !tbaa !10
  %79 = call i32 @PyUnicodeWriter_WriteRepr(ptr noundef %73, ptr noundef %78)
  %80 = icmp slt i32 %79, 0
  br i1 %80, label %81, label %82

81:                                               ; preds = %72
  store i32 2, ptr %6, align 4
  br label %86

82:                                               ; preds = %72
  br label %83

83:                                               ; preds = %82
  %84 = load i64, ptr %10, align 8, !tbaa !4
  %85 = add i64 %84, 1
  store i64 %85, ptr %10, align 8, !tbaa !4
  br label %53, !llvm.loop !128

86:                                               ; preds = %81, %70, %65, %57
  call void @llvm.lifetime.end.p0(i64 8, ptr %10) #9
  %87 = load i32, ptr %6, align 4
  switch i32 %87, label %109 [
    i32 3, label %88
    i32 2, label %106
  ]

88:                                               ; preds = %86
  %89 = load i64, ptr %5, align 8, !tbaa !4
  %90 = icmp eq i64 %89, 1
  br i1 %90, label %91, label %97

91:                                               ; preds = %88
  %92 = load ptr, ptr %9, align 8, !tbaa !126
  %93 = call i32 @PyUnicodeWriter_WriteChar(ptr noundef %92, i32 noundef 44)
  %94 = icmp slt i32 %93, 0
  br i1 %94, label %95, label %96

95:                                               ; preds = %91
  br label %106

96:                                               ; preds = %91
  br label %97

97:                                               ; preds = %96, %88
  %98 = load ptr, ptr %9, align 8, !tbaa !126
  %99 = call i32 @PyUnicodeWriter_WriteChar(ptr noundef %98, i32 noundef 41)
  %100 = icmp slt i32 %99, 0
  br i1 %100, label %101, label %102

101:                                              ; preds = %97
  br label %106

102:                                              ; preds = %97
  %103 = load ptr, ptr %4, align 8, !tbaa !8
  call void @Py_ReprLeave(ptr noundef %103)
  %104 = load ptr, ptr %9, align 8, !tbaa !126
  %105 = call ptr @PyUnicodeWriter_Finish(ptr noundef %104)
  store ptr %105, ptr %2, align 8
  store i32 1, ptr %6, align 4
  br label %109

106:                                              ; preds = %86, %101, %95, %51, %46
  %107 = load ptr, ptr %9, align 8, !tbaa !126
  call void @PyUnicodeWriter_Discard(ptr noundef %107)
  %108 = load ptr, ptr %4, align 8, !tbaa !8
  call void @Py_ReprLeave(ptr noundef %108)
  store ptr null, ptr %2, align 8
  store i32 1, ptr %6, align 4
  br label %109

109:                                              ; preds = %106, %102, %86
  call void @llvm.lifetime.end.p0(i64 8, ptr %9) #9
  call void @llvm.lifetime.end.p0(i64 8, ptr %8) #9
  br label %110

110:                                              ; preds = %109, %29
  call void @llvm.lifetime.end.p0(i64 4, ptr %7) #9
  br label %111

111:                                              ; preds = %110, %16
  call void @llvm.lifetime.end.p0(i64 8, ptr %5) #9
  call void @llvm.lifetime.end.p0(i64 8, ptr %4) #9
  %112 = load ptr, ptr %2, align 8
  ret ptr %112
}