; Function Attrs: nounwind uwtable
define internal ptr @tuple_repr(ptr noundef %0) #0 {
  %2 = getelementptr i8, ptr %0, i64 16
  %.val = load i64, ptr %2, align 8, !tbaa !107
  %3 = icmp eq i64 %.val, 0
  br i1 %3, label %4, label %6

4:                                                ; preds = %1
  %5 = tail call ptr @PyUnicode_FromString(ptr noundef nonnull @.str.7) #9
  br label %44

6:                                                ; preds = %1
  %7 = tail call i32 @Py_ReprEnter(ptr noundef nonnull %0) #9
  %.not = icmp eq i32 %7, 0
  br i1 %.not, label %12, label %8

8:                                                ; preds = %6
  %9 = icmp sgt i32 %7, 0
  br i1 %9, label %10, label %44

10:                                               ; preds = %8
  %11 = tail call ptr @PyUnicode_FromString(ptr noundef nonnull @.str.8) #9
  br label %44

12:                                               ; preds = %6
  %13 = icmp sgt i64 %.val, 1
  %14 = mul i64 %.val, 3
  %.029 = select i1 %13, i64 %14, i64 4
  %15 = tail call ptr @PyUnicodeWriter_Create(i64 noundef %.029) #9
  %16 = icmp eq ptr %15, null
  br i1 %16, label %.thread, label %17

17:                                               ; preds = %12
  %18 = tail call i32 @PyUnicodeWriter_WriteChar(ptr noundef nonnull %15, i32 noundef 40) #9
  %19 = icmp slt i32 %18, 0
  br i1 %19, label %.thread, label %.preheader

.preheader:                                       ; preds = %17
  %20 = icmp sgt i64 %.val, 0
  br i1 %20, label %.lr.ph, label %._crit_edge.thread

.lr.ph:                                           ; preds = %.preheader
  %21 = getelementptr inbounds nuw i8, ptr %0, i64 24
  br label %24

22:                                               ; preds = %31
  %23 = add nuw nsw i64 %.038, 1
  %exitcond.not = icmp eq i64 %23, %.val
  br i1 %exitcond.not, label %._crit_edge, label %24, !llvm.loop !121

24:                                               ; preds = %.lr.ph, %22
  %.038 = phi i64 [ 0, %.lr.ph ], [ %23, %22 ]
  %.not34 = icmp eq i64 %.038, 0
  br i1 %.not34, label %31, label %25

25:                                               ; preds = %24
  %26 = tail call i32 @PyUnicodeWriter_WriteChar(ptr noundef nonnull %15, i32 noundef 44) #9
  %27 = icmp slt i32 %26, 0
  br i1 %27, label %.thread, label %28

28:                                               ; preds = %25
  %29 = tail call i32 @PyUnicodeWriter_WriteChar(ptr noundef nonnull %15, i32 noundef 32) #9
  %30 = icmp slt i32 %29, 0
  br i1 %30, label %.thread, label %31

31:                                               ; preds = %28, %24
  %32 = getelementptr [1 x ptr], ptr %21, i64 0, i64 %.038
  %33 = load ptr, ptr %32, align 8, !tbaa !25
  %34 = tail call i32 @PyUnicodeWriter_WriteRepr(ptr noundef nonnull %15, ptr noundef %33) #9
  %35 = icmp slt i32 %34, 0
  br i1 %35, label %.thread, label %22

._crit_edge:                                      ; preds = %22
  %36 = icmp eq i64 %.val, 1
  br i1 %36, label %37, label %._crit_edge.thread

37:                                               ; preds = %._crit_edge
  %38 = tail call i32 @PyUnicodeWriter_WriteChar(ptr noundef nonnull %15, i32 noundef 44) #9
  %39 = icmp slt i32 %38, 0
  br i1 %39, label %.thread, label %._crit_edge.thread

._crit_edge.thread:                               ; preds = %.preheader, %37, %._crit_edge
  %40 = tail call i32 @PyUnicodeWriter_WriteChar(ptr noundef nonnull %15, i32 noundef 41) #9
  %41 = icmp slt i32 %40, 0
  br i1 %41, label %.thread, label %42

42:                                               ; preds = %._crit_edge.thread
  tail call void @Py_ReprLeave(ptr noundef nonnull %0) #9
  %43 = tail call ptr @PyUnicodeWriter_Finish(ptr noundef nonnull %15) #9
  br label %44

.thread:                                          ; preds = %31, %28, %25, %._crit_edge.thread, %37, %17, %12
  tail call void @PyUnicodeWriter_Discard(ptr noundef %15) #9
  tail call void @Py_ReprLeave(ptr noundef nonnull %0) #9
  br label %44

44:                                               ; preds = %8, %10, %.thread, %42, %4
  %.028 = phi ptr [ %5, %4 ], [ %11, %10 ], [ null, %8 ], [ null, %.thread ], [ %43, %42 ]
  ret ptr %.028
}